target datalayout = "e-m:e-p270:32:32-p271:32:32-p272:64:64-i64:64-i128:128-f80:128-n8:16:32:64-S128"
target triple = "x86_64-pc-linux-gnu"

%struct.strbuf = type { i64, i64, ptr }
%union.pthread_mutex_t = type { %struct.__pthread_mutex_s }
%struct.__pthread_mutex_s = type { i32, i32, i32, i32, i32, i16, i16, %struct.__pthread_internal_list }
%struct.__pthread_internal_list = type { ptr, ptr }
%struct.repository = type { ptr, ptr, ptr, ptr, ptr, %struct.strmap, %struct.strmap, %struct.repo_path_cache, ptr, ptr, ptr, ptr, %struct.repo_settings, ptr, ptr, ptr, ptr, ptr, ptr, i32, i32, i32, ptr, ptr, i32, i32, i8 }
%struct.strmap = type { %struct.hashmap, ptr, i8 }
%struct.hashmap = type { ptr, ptr, ptr, i32, i32, i32, i32, i8 }
%struct.repo_path_cache = type { ptr, ptr, ptr, ptr, ptr, ptr, ptr }
%struct.repo_settings = type { i32, i32, i32, i32, i32, i32, i32, i32, i32, i32, i32, i32, ptr, i32, i32, i32, i32, i32, i32, i32, i64, i64, i64 }
%struct.raw_object_store = type { ptr, ptr, ptr, i32, ptr, ptr, i8, %union.pthread_mutex_t, ptr, i8, ptr, ptr, %struct.list_head, %struct.anon, %struct.hashmap, i64, i8 }
%struct.list_head = type { ptr, ptr }
%struct.anon = type { ptr, i32 }
%struct.lock_file = type { ptr }

@the_repository = external global ptr, align 8
@.str.3 = private unnamed_addr constant [24 x i8] c"objects/info/alternates\00", align 1
@.str.4 = private unnamed_addr constant [2 x i8] c"w\00", align 1
@.str.5 = private unnamed_addr constant [37 x i8] c"unable to fdopen alternates lockfile\00", align 1
@.str.6 = private unnamed_addr constant [2 x i8] c"r\00", align 1
@__const.add_to_alternates_file.line = private unnamed_addr constant %struct.strbuf { i64 0, i64 0, ptr @strbuf_slopbuf }, align 8
@.str.7 = private unnamed_addr constant [4 x i8] c"%s\0A\00", align 1
@.str.8 = private unnamed_addr constant [31 x i8] c"unable to read alternates file\00", align 1
@.str.9 = private unnamed_addr constant [46 x i8] c"unable to move new alternates file into place\00", align 1

; Function Attrs: inlinehint nounwind uwtable
define internal i32 @hold_lock_file_for_update_timeout(ptr noundef %0, ptr noundef %1, i32 noundef %2, i64 noundef %3) #7 {
  %5 = alloca ptr, align 8
  %6 = alloca ptr, align 8
  %7 = alloca i32, align 4
  %8 = alloca i64, align 8
  store ptr %0, ptr %5, align 8, !tbaa !87
  store ptr %1, ptr %6, align 8, !tbaa !12
  store i32 %2, ptr %7, align 4, !tbaa !43
  store i64 %3, ptr %8, align 8, !tbaa !10
  %9 = load ptr, ptr %5, align 8, !tbaa !87
  %10 = load ptr, ptr %6, align 8, !tbaa !12
  %11 = load i32, ptr %7, align 4, !tbaa !43
  %12 = load i64, ptr %8, align 8, !tbaa !10
  %13 = call i32 @hold_lock_file_for_update_timeout_mode(ptr noundef %9, ptr noundef %10, i32 noundef %11, i64 noundef %12, i32 noundef 438)
  ret i32 %13
}

; Function Attrs: inlinehint nounwind uwtable
define internal i32 @rollback_lock_file(ptr noundef %0) #7 {
  %2 = alloca ptr, align 8
  store ptr %0, ptr %2, align 8, !tbaa !87
  %3 = load ptr, ptr %2, align 8, !tbaa !87
  %4 = getelementptr inbounds nuw %struct.lock_file, ptr %3, i32 0, i32 0
  %5 = call i32 @delete_tempfile(ptr noundef %4)
  ret i32 %5
}

; Function Attrs: inlinehint nounwind uwtable
define internal ptr @fdopen_lock_file(ptr noundef %0, ptr noundef %1) #7 {
  %3 = alloca ptr, align 8
  %4 = alloca ptr, align 8
  store ptr %0, ptr %3, align 8, !tbaa !87
  store ptr %1, ptr %4, align 8, !tbaa !12
  %5 = load ptr, ptr %3, align 8, !tbaa !87
  %6 = getelementptr inbounds nuw %struct.lock_file, ptr %5, i32 0, i32 0
  %7 = load ptr, ptr %6, align 8, !tbaa !89
  %8 = load ptr, ptr %4, align 8, !tbaa !12
  %9 = call ptr @fdopen_tempfile(ptr noundef %7, ptr noundef %8)
  ret ptr %9
}

; Function Attrs: inlinehint nounwind uwtable
define internal i32 @hold_lock_file_for_update(ptr noundef %0, ptr noundef %1, i32 noundef %2) #7 {
  %4 = alloca ptr, align 8
  %5 = alloca ptr, align 8
  %6 = alloca i32, align 4
  store ptr %0, ptr %4, align 8, !tbaa !87
  store ptr %1, ptr %5, align 8, !tbaa !12
  store i32 %2, ptr %6, align 4, !tbaa !43
  %7 = load ptr, ptr %4, align 8, !tbaa !87
  %8 = load ptr, ptr %5, align 8, !tbaa !12
  %9 = load i32, ptr %6, align 4, !tbaa !43
  %10 = call i32 @hold_lock_file_for_update_timeout(ptr noundef %7, ptr noundef %8, i32 noundef %9, i64 noundef 0)
  ret i32 %10
}

; Function Attrs: nounwind uwtable
define dso_local void @add_to_alternates_file(ptr noundef %0) #0 {
  %2 = alloca ptr, align 8
  %3 = alloca %struct.lock_file, align 8
  %4 = alloca ptr, align 8
  %5 = alloca ptr, align 8
  %6 = alloca ptr, align 8
  %7 = alloca i32, align 4
  %8 = alloca %struct.strbuf, align 8
  store ptr %0, ptr %2, align 8, !tbaa !12
  call void @llvm.lifetime.start.p0(i64 8, ptr %3) #14
  call void @llvm.memset.p0.i64(ptr align 8 %3, i8 0, i64 8, i1 false)
  call void @llvm.lifetime.start.p0(i64 8, ptr %4) #14
  %9 = call ptr (ptr, ...) @git_pathdup(ptr noundef @.str.3)
  store ptr %9, ptr %4, align 8, !tbaa !12
  call void @llvm.lifetime.start.p0(i64 8, ptr %5) #14
  call void @llvm.lifetime.start.p0(i64 8, ptr %6) #14
  call void @llvm.lifetime.start.p0(i64 4, ptr %7) #14
  store i32 0, ptr %7, align 4, !tbaa !43
  %10 = load ptr, ptr %4, align 8, !tbaa !12
  %11 = call i32 @hold_lock_file_for_update(ptr noundef %3, ptr noundef %10, i32 noundef 1)
  %12 = call ptr @fdopen_lock_file(ptr noundef %3, ptr noundef @.str.4)
  store ptr %12, ptr %6, align 8, !tbaa !83
  %13 = load ptr, ptr %6, align 8, !tbaa !83
  %14 = icmp ne ptr %13, null
  br i1 %14, label %17, label %15

15:                                               ; preds = %1
  %16 = call ptr @_(ptr noundef @.str.5)
  call void (ptr, ...) @die_errno(ptr noundef %16) #13
  unreachable

17:                                               ; preds = %1
  %18 = load ptr, ptr %4, align 8, !tbaa !12
  %19 = call ptr @git_fopen(ptr noundef %18, ptr noundef @.str.6)
  store ptr %19, ptr %5, align 8, !tbaa !83
  %20 = load ptr, ptr %5, align 8, !tbaa !83
  %21 = icmp ne ptr %20, null
  br i1 %21, label %22, label %41

22:                                               ; preds = %17
  call void @llvm.lifetime.start.p0(i64 24, ptr %8) #14
  call void @llvm.memcpy.p0.p0.i64(ptr align 8 %8, ptr align 8 @__const.add_to_alternates_file.line, i64 24, i1 false)
  br label %23

23:                                               ; preds = %34, %22
  %24 = load ptr, ptr %5, align 8, !tbaa !83
  %25 = call i32 @strbuf_getline(ptr noundef %8, ptr noundef %24)
  %26 = icmp ne i32 %25, -1
  br i1 %26, label %27, label %38

27:                                               ; preds = %23
  %28 = load ptr, ptr %2, align 8, !tbaa !12
  %29 = getelementptr inbounds nuw %struct.strbuf, ptr %8, i32 0, i32 2
  %30 = load ptr, ptr %29, align 8, !tbaa !56
  %31 = call i32 @strcmp(ptr noundef %28, ptr noundef %30) #15
  %32 = icmp ne i32 %31, 0
  br i1 %32, label %34, label %33

33:                                               ; preds = %27
  store i32 1, ptr %7, align 4, !tbaa !43
  br label %38

34:                                               ; preds = %27
  %35 = load ptr, ptr %6, align 8, !tbaa !83
  %36 = getelementptr inbounds nuw %struct.strbuf, ptr %8, i32 0, i32 2
  %37 = load ptr, ptr %36, align 8, !tbaa !56
  call void (ptr, ptr, ...) @fprintf_or_die(ptr noundef %35, ptr noundef @.str.7, ptr noundef %37)
  br label %23, !llvm.loop !85

38:                                               ; preds = %33, %23
  call void @strbuf_release(ptr noundef %8)
  %39 = load ptr, ptr %5, align 8, !tbaa !83
  %40 = call i32 @fclose(ptr noundef %39)
  call void @llvm.lifetime.end.p0(i64 24, ptr %8) #14
  br label %48

41:                                               ; preds = %17
  %42 = call ptr @__errno_location() #16
  %43 = load i32, ptr %42, align 4, !tbaa !43
  %44 = icmp ne i32 %43, 2
  br i1 %44, label %45, label %47

45:                                               ; preds = %41
  %46 = call ptr @_(ptr noundef @.str.8)
  call void (ptr, ...) @die_errno(ptr noundef %46) #13
  unreachable

47:                                               ; preds = %41
  br label %48

48:                                               ; preds = %47, %38
  %49 = load i32, ptr %7, align 4, !tbaa !43
  %50 = icmp ne i32 %49, 0
  br i1 %50, label %51, label %53

51:                                               ; preds = %48
  %52 = call i32 @rollback_lock_file(ptr noundef %3)
  br label %71

53:                                               ; preds = %48
  %54 = load ptr, ptr %6, align 8, !tbaa !83
  %55 = load ptr, ptr %2, align 8, !tbaa !12
  call void (ptr, ptr, ...) @fprintf_or_die(ptr noundef %54, ptr noundef @.str.7, ptr noundef %55)
  %56 = call i32 @commit_lock_file(ptr noundef %3)
  %57 = icmp ne i32 %56, 0
  br i1 %57, label %58, label %60

58:                                               ; preds = %53
  %59 = call ptr @_(ptr noundef @.str.9)
  call void (ptr, ...) @die_errno(ptr noundef %59) #13
  unreachable

60:                                               ; preds = %53
  %61 = load ptr, ptr @the_repository, align 8, !tbaa !19
  %62 = getelementptr inbounds nuw %struct.repository, ptr %61, i32 0, i32 2
  %63 = load ptr, ptr %62, align 8, !tbaa !64
  %64 = getelementptr inbounds nuw %struct.raw_object_store, ptr %63, i32 0, i32 3
  %65 = load i32, ptr %64, align 8, !tbaa !86
  %66 = icmp ne i32 %65, 0
  br i1 %66, label %67, label %70

67:                                               ; preds = %60
  %68 = load ptr, ptr @the_repository, align 8, !tbaa !19
  %69 = load ptr, ptr %2, align 8, !tbaa !12
  call void @link_alt_odb_entries(ptr noundef %68, ptr noundef %69, i32 noundef 10, ptr noundef null, i32 noundef 0)
  br label %70

70:                                               ; preds = %67, %60
  br label %71

71:                                               ; preds = %70, %51
  %72 = load ptr, ptr %4, align 8, !tbaa !12
  call void @free(ptr noundef %72) #14
  call void @llvm.lifetime.end.p0(i64 4, ptr %7) #14
  call void @llvm.lifetime.end.p0(i64 8, ptr %6) #14
  call void @llvm.lifetime.end.p0(i64 8, ptr %5) #14
  call void @llvm.lifetime.end.p0(i64 8, ptr %4) #14
  call void @llvm.lifetime.end.p0(i64 8, ptr %3) #14
  ret void
}