; Function Attrs: nounwind uwtable
define dso_local void @add_to_alternates_file(ptr noundef %0) local_unnamed_addr #1 {
  %2 = alloca %struct.lock_file, align 8
  %3 = alloca %struct.strbuf, align 8
  call void @llvm.lifetime.start.p0(i64 8, ptr nonnull %2) #27
  store i64 0, ptr %2, align 8
  %4 = tail call ptr (ptr, ...) @git_pathdup(ptr nonnull poison)
  %5 = call i32 @hold_lock_file_for_update_timeout_mode(ptr noundef nonnull %2, ptr noundef %4, i32 noundef 1, i64 noundef 0, i32 noundef 438) #27
  %.val = load ptr, ptr %2, align 8, !tbaa !74
  %6 = call ptr @fdopen_tempfile(ptr noundef %.val, ptr noundef nonnull @.str.4) #27
  %.not = icmp eq ptr %6, null
  br i1 %.not, label %7, label %9

7:                                                ; preds = %1
  %8 = call fastcc ptr @_(ptr noundef nonnull @.str.5)
  call void (ptr, ...) @die_errno(ptr noundef %8) #26
  unreachable

9:                                                ; preds = %1
  %10 = call ptr @git_fopen(ptr noundef %4, ptr noundef nonnull @.str.6) #27
  %.not14 = icmp eq ptr %10, null
  br i1 %.not14, label %19, label %11

11:                                               ; preds = %9
  call void @llvm.lifetime.start.p0(i64 24, ptr nonnull %3) #27
  call void @llvm.memcpy.p0.p0.i64(ptr noundef nonnull align 8 dereferenceable(24) %3, ptr noundef nonnull align 8 dereferenceable(24) @__const.index_mem.nbuf, i64 24, i1 false)
  %12 = call i32 @strbuf_getline(ptr noundef nonnull %3, ptr noundef nonnull %10) #27
  %.not1622 = icmp eq i32 %12, -1
  br i1 %.not1622, label %.critedge.critedge, label %.lr.ph

.lr.ph:                                           ; preds = %11
  %13 = getelementptr inbounds nuw i8, ptr %3, i64 16
  br label %14

14:                                               ; preds = %.lr.ph, %17
  %15 = load ptr, ptr %13, align 8, !tbaa !49
  %16 = call i32 @strcmp(ptr noundef nonnull dereferenceable(1) %0, ptr noundef nonnull dereferenceable(1) %15) #28
  %.not17 = icmp eq i32 %16, 0
  br i1 %.not17, label %24, label %17

17:                                               ; preds = %14
  call void (ptr, ptr, ...) @fprintf_or_die(ptr noundef nonnull %6, ptr noundef nonnull @.str.7, ptr noundef nonnull %15) #27
  %18 = call i32 @strbuf_getline(ptr noundef nonnull %3, ptr noundef nonnull %10) #27
  %.not16 = icmp eq i32 %18, -1
  br i1 %.not16, label %.critedge.critedge, label %14, !llvm.loop !77

19:                                               ; preds = %9
  %20 = tail call ptr @__errno_location() #29
  %21 = load i32, ptr %20, align 4, !tbaa !44
  %.not15 = icmp eq i32 %21, 2
  br i1 %.not15, label %.critedge, label %22

22:                                               ; preds = %19
  %23 = call fastcc ptr @_(ptr noundef nonnull @.str.8)
  call void (ptr, ...) @die_errno(ptr noundef %23) #26
  unreachable

24:                                               ; preds = %14
  call void @strbuf_release(ptr noundef nonnull %3) #27
  %25 = call i32 @fclose(ptr noundef nonnull %10)
  call void @llvm.lifetime.end.p0(i64 24, ptr nonnull %3) #27
  %26 = call i32 @delete_tempfile(ptr noundef nonnull %2) #27
  br label %38

.critedge.critedge:                               ; preds = %17, %11
  call void @strbuf_release(ptr noundef nonnull %3) #27
  %27 = call i32 @fclose(ptr noundef nonnull %10)
  call void @llvm.lifetime.end.p0(i64 24, ptr nonnull %3) #27
  br label %.critedge

.critedge:                                        ; preds = %.critedge.critedge, %19
  call void (ptr, ptr, ...) @fprintf_or_die(ptr noundef nonnull %6, ptr noundef nonnull @.str.7, ptr noundef %0) #27
  %28 = call i32 @commit_lock_file(ptr noundef nonnull %2) #27
  %.not19 = icmp eq i32 %28, 0
  br i1 %.not19, label %31, label %29

29:                                               ; preds = %.critedge
  %30 = call fastcc ptr @_(ptr noundef nonnull @.str.9)
  call void (ptr, ...) @die_errno(ptr noundef %30) #26
  unreachable

31:                                               ; preds = %.critedge
  %32 = load ptr, ptr @the_repository, align 8, !tbaa !9
  %33 = getelementptr inbounds nuw i8, ptr %32, i64 16
  %34 = load ptr, ptr %33, align 8, !tbaa !54
  %35 = getelementptr inbounds nuw i8, ptr %34, i64 24
  %36 = load i32, ptr %35, align 8, !tbaa !78
  %.not20 = icmp eq i32 %36, 0
  br i1 %.not20, label %38, label %37

37:                                               ; preds = %31
  call fastcc void @link_alt_odb_entries(ptr noundef nonnull %32, ptr noundef %0, i32 noundef 10, ptr noundef null, i32 noundef 0)
  br label %38

38:                                               ; preds = %31, %37, %24
  call void @free(ptr noundef %4) #27
  call void @llvm.lifetime.end.p0(i64 8, ptr nonnull %2) #27
  ret void
}